target datalayout = "e-m:e-p270:32:32-p271:32:32-p272:64:64-i64:64-i128:128-f80:128-n8:16:32:64-S128"
target triple = "x86_64-unknown-linux-gnu"

%"class.pugi::xml_node" = type { ptr }
%"struct.pugi::xml_node_struct" = type { i64, ptr, ptr, ptr, ptr, ptr, ptr, ptr }

; Function Attrs: mustprogress nounwind uwtable
define internal noundef i64 @_ZN4pugi4impl12_GLOBAL__N_19strlengthEPKc(ptr noundef %s) #0 {
entry:
  %s.addr = alloca ptr, align 8
  store ptr %s, ptr %s.addr, align 8
  %0 = load ptr, ptr %s.addr, align 8
  %call = call i64 @strlen(ptr noundef %0) #15
  ret i64 %call
}

; Function Attrs: mustprogress uwtable
define noundef zeroext i1 @_ZN4pugi8xml_node8set_nameEPKc(ptr noundef nonnull align 8 dereferenceable(8) %this, ptr noundef %rhs) #2 align 2 {
entry:
  %retval = alloca i1, align 1
  %this.addr = alloca ptr, align 8
  %rhs.addr = alloca ptr, align 8
  %type_ = alloca i32, align 4
  store ptr %this, ptr %this.addr, align 8
  store ptr %rhs, ptr %rhs.addr, align 8
  %this1 = load ptr, ptr %this.addr, align 8
  %_root = getelementptr inbounds %"class.pugi::xml_node", ptr %this1, i32 0, i32 0
  %0 = load ptr, ptr %_root, align 8
  %tobool = icmp ne ptr %0, null
  br i1 %tobool, label %cond.true, label %cond.false

cond.true:                                        ; preds = %entry
  %_root2 = getelementptr inbounds %"class.pugi::xml_node", ptr %this1, i32 0, i32 0
  %1 = load ptr, ptr %_root2, align 8
  %header = getelementptr inbounds %"struct.pugi::xml_node_struct", ptr %1, i32 0, i32 0
  %2 = load i64, ptr %header, align 8
  %and = and i64 %2, 15
  %conv = trunc i64 %and to i32
  br label %cond.end

cond.false:                                       ; preds = %entry
  br label %cond.end

cond.end:                                         ; preds = %cond.false, %cond.true
  %cond = phi i32 [ %conv, %cond.true ], [ 0, %cond.false ]
  store i32 %cond, ptr %type_, align 4
  %3 = load i32, ptr %type_, align 4
  %cmp = icmp ne i32 %3, 2
  br i1 %cmp, label %land.lhs.true, label %if.end

land.lhs.true:                                    ; preds = %cond.end
  %4 = load i32, ptr %type_, align 4
  %cmp3 = icmp ne i32 %4, 6
  br i1 %cmp3, label %land.lhs.true4, label %if.end

land.lhs.true4:                                   ; preds = %land.lhs.true
  %5 = load i32, ptr %type_, align 4
  %cmp5 = icmp ne i32 %5, 7
  br i1 %cmp5, label %if.then, label %if.end

if.then:                                          ; preds = %land.lhs.true4
  store i1 false, ptr %retval, align 1
  br label %return

if.end:                                           ; preds = %land.lhs.true4, %land.lhs.true, %cond.end
  %_root6 = getelementptr inbounds %"class.pugi::xml_node", ptr %this1, i32 0, i32 0
  %6 = load ptr, ptr %_root6, align 8
  %name = getelementptr inbounds %"struct.pugi::xml_node_struct", ptr %6, i32 0, i32 1
  %_root7 = getelementptr inbounds %"class.pugi::xml_node", ptr %this1, i32 0, i32 0
  %7 = load ptr, ptr %_root7, align 8
  %header8 = getelementptr inbounds %"struct.pugi::xml_node_struct", ptr %7, i32 0, i32 0
  %8 = load ptr, ptr %rhs.addr, align 8
  %9 = load ptr, ptr %rhs.addr, align 8
  %call = call noundef i64 @_ZN4pugi4impl12_GLOBAL__N_19strlengthEPKc(ptr noundef %9)
  %call9 = call noundef zeroext i1 @_ZN4pugi4impl12_GLOBAL__N_113strcpy_insituIPcmEEbRT_RT0_mPKcm(ptr noundef nonnull align 8 dereferenceable(8) %name, ptr noundef nonnull align 8 dereferenceable(8) %header8, i64 noundef 32, ptr noundef %8, i64 noundef %call)
  store i1 %call9, ptr %retval, align 1
  br label %return

return:                                           ; preds = %if.end, %if.then
  %10 = load i1, ptr %retval, align 1
  ret i1 %10
}