; Function Attrs: mustprogress uwtable
define noundef zeroext i1 @_ZN4pugi8xml_node8set_nameEPKc(ptr nocapture noundef nonnull readonly align 8 dereferenceable(8) %this, ptr nocapture noundef readonly %rhs) local_unnamed_addr #6 align 2 {
entry:
  %0 = load ptr, ptr %this, align 8
  %tobool.not = icmp eq ptr %0, null
  br i1 %tobool.not, label %cond.end, label %cond.true

cond.true:                                        ; preds = %entry
  %1 = load i64, ptr %0, align 8
  %2 = trunc i64 %1 to i32
  %conv = and i32 %2, 15
  br label %cond.end

cond.end:                                         ; preds = %entry, %cond.true
  %cond = phi i32 [ %conv, %cond.true ], [ 0, %entry ]
  %3 = and i32 %cond, 11
  %or.cond = icmp ne i32 %3, 2
  %cmp5 = icmp ne i32 %cond, 7
  %or.cond1 = and i1 %cmp5, %or.cond
  br i1 %or.cond1, label %return, label %if.end

if.end:                                           ; preds = %cond.end
  %name = getelementptr inbounds i8, ptr %0, i64 8
  %call.i = tail call noundef i64 @strlen(ptr noundef nonnull dereferenceable(1) %rhs) #43
  %call9 = tail call fastcc noundef zeroext i1 @_ZN4pugi4impl12_GLOBAL__N_113strcpy_insituIPcmEEbRT_RT0_mPKcm(ptr noundef nonnull align 8 dereferenceable(8) %name, ptr noundef nonnull align 8 dereferenceable(8) %0, i64 noundef 32, ptr noundef %rhs, i64 noundef %call.i)
  br label %return

return:                                           ; preds = %cond.end, %if.end
  %retval.0 = phi i1 [ %call9, %if.end ], [ false, %cond.end ]
  ret i1 %retval.0
}